; Function Attrs: nounwind uwtable
define internal void @hwdevice_ctx_free(ptr readnone captures(none) %0, ptr noundef %1) #5 {
  %3 = alloca ptr, align 8
  call void @llvm.lifetime.start.p0(i64 8, ptr nonnull %3) #11
  store ptr %1, ptr %3, align 8, !tbaa !19
  %4 = getelementptr inbounds nuw i8, ptr %1, i64 40
  %5 = load ptr, ptr %4, align 8, !tbaa !27
  %6 = getelementptr inbounds nuw i8, ptr %5, i64 72
  %7 = load ptr, ptr %6, align 8, !tbaa !30
  %.not = icmp eq ptr %7, null
  br i1 %.not, label %9, label %8

8:                                                ; preds = %2
  tail call void %7(ptr noundef nonnull %1) #11
  br label %9

9:                                                ; preds = %8, %2
  %10 = getelementptr inbounds nuw i8, ptr %1, i64 24
  %11 = load ptr, ptr %10, align 8, !tbaa !31
  %.not6 = icmp eq ptr %11, null
  br i1 %.not6, label %13, label %12

12:                                               ; preds = %9
  tail call void %11(ptr noundef nonnull %1) #11
  br label %13

13:                                               ; preds = %12, %9
  %14 = getelementptr inbounds nuw i8, ptr %1, i64 48
  tail call void @av_buffer_unref(ptr noundef nonnull %14) #11
  %15 = getelementptr inbounds nuw i8, ptr %1, i64 16
  tail call void @av_freep(ptr noundef nonnull %15) #11
  call void @av_freep(ptr noundef nonnull %3) #11
  call void @llvm.lifetime.end.p0(i64 8, ptr nonnull %3) #11
  ret void
}